; ModuleID = '22/1063.c'
source_filename = "22/1063.c"
target datalayout = "e-m:e-p270:32:32-p271:32:32-p272:64:64-i64:64-f80:128-n8:16:32:64-S128"
target triple = "x86_64-pc-linux-gnu"

@.str = private unnamed_addr constant [3 x i8] c"%d\00", align 1
@.str.1 = private unnamed_addr constant [4 x i8] c"No\0A\00", align 1
@.str.2 = private unnamed_addr constant [4 x i8] c"%d\0A\00", align 1
@a = common dso_local global [10000 x i32] zeroinitializer, align 16

; Function Attrs: noinline nounwind uwtable
define dso_local i32 @main() #0 {
  %1 = alloca i32, align 4
  %2 = alloca i32, align 4
  %3 = alloca i32, align 4
  %4 = alloca i32, align 4
  %5 = alloca i8, align 1
  store i32 0, i32* %1, align 4
  store i32 -999, i32* %2, align 4
  store i32 -999, i32* %3, align 4
  br label %6

6:                                                ; preds = %28, %0
  %7 = call i32 (i8*, ...) @__isoc99_scanf(i8* getelementptr inbounds ([3 x i8], [3 x i8]* @.str, i64 0, i64 0), i32* %4)
  %8 = load i32, i32* %4, align 4
  %9 = load i32, i32* %2, align 4
  %10 = icmp sgt i32 %8, %9
  br i1 %10, label %11, label %14

11:                                               ; preds = %6
  %12 = load i32, i32* %2, align 4
  store i32 %12, i32* %3, align 4
  %13 = load i32, i32* %4, align 4
  store i32 %13, i32* %2, align 4
  br label %25

14:                                               ; preds = %6
  %15 = load i32, i32* %4, align 4
  %16 = load i32, i32* %2, align 4
  %17 = icmp slt i32 %15, %16
  br i1 %17, label %18, label %24

18:                                               ; preds = %14
  %19 = load i32, i32* %4, align 4
  %20 = load i32, i32* %3, align 4
  %21 = icmp sgt i32 %19, %20
  br i1 %21, label %22, label %24

22:                                               ; preds = %18
  %23 = load i32, i32* %4, align 4
  store i32 %23, i32* %3, align 4
  br label %24

24:                                               ; preds = %22, %18, %14
  br label %25

25:                                               ; preds = %24, %11
  %26 = call i32 @getchar()
  %27 = trunc i32 %26 to i8
  store i8 %27, i8* %5, align 1
  br label %28

28:                                               ; preds = %25
  %29 = load i8, i8* %5, align 1
  %30 = sext i8 %29 to i32
  %31 = icmp sge i32 %30, 32
  br i1 %31, label %6, label %32

32:                                               ; preds = %28
  %33 = load i32, i32* %3, align 4
  %34 = icmp eq i32 %33, -999
  br i1 %34, label %35, label %37

35:                                               ; preds = %32
  %36 = call i32 (i8*, ...) @printf(i8* getelementptr inbounds ([4 x i8], [4 x i8]* @.str.1, i64 0, i64 0))
  br label %40

37:                                               ; preds = %32
  %38 = load i32, i32* %3, align 4
  %39 = call i32 (i8*, ...) @printf(i8* getelementptr inbounds ([4 x i8], [4 x i8]* @.str.2, i64 0, i64 0), i32 %38)
  br label %40

40:                                               ; preds = %37, %35
  ret i32 0
}

declare dso_local i32 @__isoc99_scanf(i8*, ...) #1

declare dso_local i32 @getchar() #1

declare dso_local i32 @printf(i8*, ...) #1


!llvm.module.flags = !{!0}
!llvm.ident = !{!1}

!0 = !{i32 1, !"wchar_size", i32 4}
!1 = !{!"clang version 10.0.0-4ubuntu1 "}
